; Function Attrs: nounwind uwtable
define ptr @PyInit__testexternalinspection() local_unnamed_addr #0 {
  %1 = tail call ptr @PyModule_Create2(ptr noundef nonnull @module, i32 noundef 1013) #9
  %2 = icmp eq ptr %1, null
  br i1 %2, label %Py_DECREF.exit, label %3

3:                                                ; preds = %0
  %4 = tail call i32 @PyModule_AddIntConstant(ptr noundef nonnull %1, ptr noundef nonnull @.str, i64 noundef 1) #9
  %5 = icmp slt i32 %4, 0
  br i1 %5, label %6, label %Py_DECREF.exit

6:                                                ; preds = %3
  %7 = load i32, ptr %1, align 8, !tbaa !3
  %.not.i = icmp sgt i32 %7, -1
  br i1 %.not.i, label %8, label %Py_DECREF.exit

8:                                                ; preds = %6
  %9 = add nsw i32 %7, -1
  store i32 %9, ptr %1, align 8, !tbaa !3
  %10 = icmp eq i32 %9, 0
  br i1 %10, label %11, label %Py_DECREF.exit

11:                                               ; preds = %8
  tail call void @_Py_Dealloc(ptr noundef nonnull %1) #9
  br label %Py_DECREF.exit

Py_DECREF.exit:                                   ; preds = %11, %8, %6, %3, %0
  %.0 = phi ptr [ null, %0 ], [ %1, %3 ], [ null, %6 ], [ null, %8 ], [ null, %11 ]
  ret ptr %.0
}